ccopy_reg
_reconstructor
p0
(cgoogle.oauth2.credentials
Credentials
p1
c__builtin__
object
p2
Ntp3
Rp4
(dp5
S'_token_uri'
p6
Vhttps://oauth2.googleapis.com/token
p7
sS'_scopes'
p8
(lp9
S'https://www.googleapis.com/auth/spreadsheets'
p10
asS'_id_token'
p11
NsS'token'
p12
Vya29.Gl2AB36qOkP7MH_BO1BT9zxLovFVjuFJ4X5NLYK6CUfGcl8xBItFekIhvFTzZ5Q7-wvsV4rzalLbUbyROmCU7IxqXWRUnEBznOGyevHD8udCeFXgrb3HtCkskNe-8FU
p13
sS'_refresh_token'
p14
V1/nbzWjAoY02K7VAVphKaQzjtwOGK6fAy8NthbMLCm-wc
p15
sS'_client_secret'
p16
VfzizbQofAOsMb0sKn0-m5E3n
p17
sS'_client_id'
p18
V551942752794-81sced3ohdr7ot0fd22ogeuheld7e2dl.apps.googleusercontent.com
p19
sS'expiry'
p20
cdatetime
datetime
p21
(S'\x07\xe3\t\x0b\r\x0f$\x03s7'
p22
tp23
Rp24
sb.